(dp0
VHacienda_Pinilla.mdb.FULL.PQlog.csv
p1
S'1.4544999058190000e+12'
p2
sVFlamingo_Hotel.mdb.FULL.PQlog.csv
p3
I1471503301559
sVBarra_C_Guayabal.mdb.FULL.PQlog.csv
p4
I1471502938967
sVLa_Cuesta.mdb.FULL.PQlog.csv
p5
I1471850438368
sVMelonera_Caimital.mdb.FULL.PQlog.csv
p6
S'1.4548975048470000e+12'
p7
sVTribunales_Sta_Cruz.mdb.FULL.PQlog.csv
p8
I1468992837470
sVClinica_Filadelfia.mdb.FULL.PQlog.csv
p9
I1471502941199
sVSupercomproCoco.mdb.FULL.PQlog.csv
p10
I1471437516683
sVBNCR_Jicaral.mdb.FULL.PQlog.csv
p11
I1471507005685
sVClinica_Hojancha.mdb.FULL.PQlog.csv
p12
I1471499935246
sVMARRIOT.mdb.FULL.PQlog.csv
p13
I1471502940981
sVBarra_B_Guayabal.mdb.FULL.PQlog.csv
p14
I1471456424908
sVTamarindo_AutoMercado.mdb.FULL.PQlog.csv
p15
I1471502940423
sVWestin.mdb.FULL.PQlog.csv
p16
I1471502483278
sVIngenio_CATSA.mdb.FULL.PQlog.csv
p17
I1471437516634
sVHospital_Nicoya.mdb.FULL.PQlog.csv
p18
I1471456449674
sVRIU_Hotel.mdb.FULL.PQlog.csv
p19
S'1.4655270010000000e+12'
p20
sVBarra_A_Guayabal.mdb.FULL.PQlog.csv
p21
I1471502940237
s.