(dp0
S'Cementerio_Santa_Rosa,PhaseCRecloseCounter1'
p1
S'104'
p2
sS'27_de_Abril,PhaseARecloseCounter1'
p3
S'33'
p4
sS'RIU,PhaseCRecloseCounter1'
p5
S'18'
p6
sS'Bloquera,OverCurrTripCounter'
p7
S'344'
p8
sS'Belen_Filadelfia,PhaseCRecloseCounter1'
p9
S'166'
p10
sS'Huacas,PhaseBRecloseCounter1'
p11
S'138'
p12
sS'Sugar,PhaseBOvercurrTripCounter'
p13
S'44'
p14
sS'Bloquera,PhaseCRecloseCounter1'
p15
S'132'
p16
sS'Chorrera,PhaseCRecloseCounter1'
p17
S'28'
p18
sS'Guarial,PhaseARecloseCounter1'
p19
S'120'
p20
sS'Playa_Hermosa,OverCurrTripCounter'
p21
S'99'
p22
sS'File_name'
p23
S'RECIERRES20160817000011.XLS'
p24
sS'Enlace_La_Isla,AI06'
p25
S'16'
p26
sS'Maranones,AI17'
p27
S'165'
p28
sS'Curu,PhaseARecloseCounter1'
p29
S'30'
p30
sS'Curu,PhaseBRecloseCounter1'
p31
S'26'
p32
sS'Danta,OverCurrTripCounter'
p33
S'23'
p34
sS'Huacas,PhaseCRecloseCounter1'
p35
S'138'
p36
sS'Playa_Grande,AI06'
p37
S'930'
p38
sS'Azul_Paraiso,PhaseCRecloseCounter1'
p39
S'23'
p40
sS'Flamingo,PhaseAOvercurrTripCounter'
p41
S'245'
p42
sS'Enlace_Santa_Cruz_Pinilla,PhaseARecloseCounter1'
p43
S'13'
p44
sS'Enlace_Pinilla_Tamarindo,AI06'
p45
S'506'
p46
sS'Bloquera,PhaseBRecloseCounter1'
p47
S'146'
p48
sS'Tanque,PhaseCRecloseCounter1'
p49
S'12'
p50
sS'Malinches,PhaseARecloseCounter1'
p51
S'0'
p52
sS'Carmona,PhaseBRecloseCounter1'
p53
S'45'
p54
sS'Cementerio,PhaseCRecloseCounter1'
p55
S'366'
p56
sS'Talolinga,AI03'
p57
S'343'
p58
sS'Rio_Seco,PhaseARecloseCounter1'
p59
S'215'
p60
sS'Soncoyo,PhaseARecloseCounter1'
p61
S'146'
p62
sS'Belen-Filadelfia,AI06'
p63
S'86'
p64
sS'Tanque,PhaseARecloseCounter1'
p65
S'13'
p66
sS'Villarreal,PhaseCRecloseCounter1'
p67
S'262'
p68
sS'Curu,PhaseCRecloseCounter1'
p69
S'26'
p70
sS'Switch_Maranones,AI17'
p71
S'162'
p72
sS'Universidad,PhaseARecloseCounter1'
p73
S'130'
p74
sS'Sugar,PhaseAOvercurrTripCounter'
p75
S'49'
p76
sS'CATSA,IEDTimeoutCount'
p77
S'0'
p78
sS'Matapalo,AI03'
p79
S'527'
p80
sS'Flamingo,PhaseBRecloseCounter1'
p81
S'254'
p82
sS'Soncoyo,OverCurrTripCounter'
p83
S'176'
p84
sS'Villarreal,PhaseBRecloseCounter1'
p85
S'262'
p86
sS'Nambi,AI03'
p87
S'605'
p88
sS'None'
p89
S'0'
p90
sS'Huacas,OverCurrTripCounter'
p91
S'206'
p92
sS'CATSA,OverCurrTripCounter'
p93
S'173'
p94
sS'Enlace_Santa_Cruz_Pinilla,PhaseCRecloseCounter1'
p95
S'8'
p96
sS'Soda_Sardinal,PhaseARecloseCounter1'
p97
S'145'
p98
sS'Switch_Potrero,AI17'
p99
S'279'
p100
sS'RIU,OverCurrTripCounter'
p101
S'52'
p102
sS'Monteclaro,PhaseARecloseCounter1'
p103
S'277'
p104
sS'Moracia,AI03'
p105
S'641'
p106
sS'La_Girona,AI06'
p107
S'979'
p108
sS'Universidad,PhaseBRecloseCounter1'
p109
S'115'
p110
sS'Pachamama,AI03'
p111
S'1389'
p112
sS'Mansion,AI06'
p113
S'610'
p114
sS'Danta,PhaseCRecloseCounter1'
p115
g96
sS'Marbella,AI03'
p116
S'0'
p117
sS'Flamingo,PhaseCRecloseCounter1'
p118
S'193'
p119
sS'Cementerio,OverCurrTripCounter'
p120
S'513'
p121
sS'El_Regalo,AI06'
p122
S'266'
p123
sS'Villarreal,OverCurrTripCounter'
p124
S'352'
p125
sS'Switch_Huacas,AI17'
p126
S'115'
p127
sS'Playa_Hermosa,PhaseBRecloseCounter1'
p128
S'66'
p129
sS'Belen,AI06'
p130
S'828'
p131
sS'San_Martin,PhaseARecloseCounter1'
p132
S'20'
p133
sS'Vista_al_Mar,AI03'
p134
S'1085'
p135
sS'Gigante,AI06'
p136
S'1284'
p137
sS'Cartagena_Huacas,AI06'
p138
S'1081'
p139
sS'San_Martin,PhaseBRecloseCounter1'
p140
S'27'
p141
sS'Cementerio,PhaseARecloseCounter1'
p142
S'372'
p143
sS'Belen_Filadelfia,PhaseARecloseCounter1'
p144
S'157'
p145
sS'Cementerio,PhaseCOvercurrTripCounter'
p146
S'203'
p147
sS'Flamingo,OverCurrTripCounter'
p148
S'516'
p149
sS'Hatillo,AI03'
p150
S'321'
p151
sS'Azul_Paraiso,PhaseBRecloseCounter1'
p152
S'23'
p153
sS'Pinilla,AI06'
p154
S'976'
p155
sS'Soda_Sardinal,PhaseCRecloseCounter1'
p156
S'118'
p157
sS'Cementerio_Santa_Rosa,PhaseARecloseCounter1'
p158
S'95'
p159
sS'Soncoyo,PhaseCRecloseCounter1'
p160
S'146'
p161
sS'San_Martin,PhaseCRecloseCounter1'
p162
S'19'
p163
sS'Villarreal,PhaseARecloseCounter1'
p164
S'266'
p165
sS'Cuesta_Huacas,AI06'
p166
S'27'
p167
sS'Carmona,PhaseARecloseCounter1'
p168
S'168'
p169
sS'Circuito_Ocotal,IEDSendMsgCount'
p170
g78
sS'CATSA,PhaseARecloseCounter1'
p171
S'6'
p172
sS'Cementerio,PhaseBOvercurrTripCounter'
p173
S'313'
p174
sS'Rio_Seco,OverCurrTripCounter'
p175
S'518'
p176
sS'Sugar,PhaseARecloseCounter1'
p177
S'61'
p178
sS'Circuito_Matapalo,Ic'
p179
S'0'
p180
sS'Guarial,PhaseBRecloseCounter1'
p181
S'116'
p182
sS'CATSA,PhaseBRecloseCounter1'
p183
S'5'
p184
sS'Sardinal,AI06'
p185
S'393'
p186
sS'Malinches,PhaseCRecloseCounter1'
p187
g52
sS'La_Guinea,AI06'
p188
S'1299'
p189
sS'Flamingo,PhaseCOvercurrTripCounter'
p190
S'196'
p191
sS'Bloquera,PhaseARecloseCounter1'
p192
S'153'
p193
sS'Higueron,PhaseBRecloseCounter1'
p194
S'92'
p195
sS'Tanque,OverCurrTripCounter'
p196
S'26'
p197
sS'Malinches,AI06'
p198
S'69'
p199
sS'Curu,OverCurrTripCounter'
p200
S'27'
p201
sS'Sugar,PhaseCOvercurrTripCounter'
p202
S'106'
p203
sS'Ocotal,AI06'
p204
S'534'
p205
sS'Danta,PhaseBRecloseCounter1'
p206
g96
sS'Guarial,PhaseCRecloseCounter1'
p207
S'116'
p208
sS'RIU,PhaseARecloseCounter1'
p209
S'21'
p210
sS'Chorrera,PhaseBRecloseCounter1'
p211
S'32'
p212
sS'Surfside,AI03'
p213
S'138'
p214
sS'27_de_Abril,OverCurrTripCounter'
p215
S'1'
p216
sS'Chorrera,PhaseARecloseCounter1'
p217
S'95'
p218
sS'Guaitil,AI06'
p219
S'421'
p220
sS'Monteclaro,OverCurrTripCounter'
p221
S'445'
p222
sS'Sugar,PhaseBRecloseCounter1'
p223
S'55'
p224
sS'Higueron,PhaseARecloseCounter1'
p225
S'98'
p226
sS'Rio_Seco,PhaseBRecloseCounter1'
p227
S'316'
p228
sS'Arado,AI03'
p229
S'410'
p230
sS'Monteclaro,PhaseBRecloseCounter1'
p231
S'300'
p232
sS'Belen_Filadelfia,PhaseBRecloseCounter1'
p233
S'169'
p234
sS'Carmona,PhaseCRecloseCounter1'
p235
S'48'
p236
sS'Rio_Seco,PhaseCRecloseCounter1'
p237
S'213'
p238
sS'PuebloViejo,AI06'
p239
S'513'
p240
sS'Cementerio,PhaseBRecloseCounter1'
p241
S'379'
p242
sS'Ostional,AI03'
p243
S'1360'
p244
sS'Higueron,OverCurrTripCounter'
p245
S'263'
p246
sS'Tanque,PhaseBRecloseCounter1'
p247
S'12'
p248
sS'San_Antonio,AI06'
p249
S'388'
p250
sS'Flamingo,PhaseBOvercurrTripCounter'
p251
S'301'
p252
sS'Universidad,PhaseCRecloseCounter1'
p253
S'90'
p254
sS'Chorrera,OverCurrTripCounter'
p255
S'171'
p256
sS'Soda_Sardinal,PhaseBRecloseCounter1'
p257
S'115'
p258
sS'Maranones,AI06'
p259
S'41'
p260
sS'Marbella,AI06'
p261
S'125'
p262
sS'Cementerio_Santa_Rosa,OverCurrTripCounter'
p263
S'172'
p264
sS'Playa_Hermosa,PhaseCRecloseCounter1'
p265
S'32'
p266
sS'Cementerio,PhaseAOvercurrTripCounter'
p267
S'231'
p268
sS'Soncoyo,PhaseBRecloseCounter1'
p269
S'146'
p270
sS'Avellanas,AI03'
p271
S'670'
p272
sS'CATSA,Vbn_Mag'
p273
g78
sS'Jocotes,AI06'
p274
S'965'
p275
sS'Universidad,OverCurrTripCounter'
p276
S'306'
p277
sS'Azul_Paraiso,OverCurrTripCounter'
p278
S'45'
p279
sS'Enlace_Santa_Cruz_Pinilla,OverCurrTripCounter'
p280
S'27'
p281
sS'Hospital,AI06'
p282
S'391'
p283
sS'Sugar,PhaseCRecloseCounter1'
p284
S'92'
p285
sS'Playa_Hermosa,PhaseARecloseCounter1'
p286
S'14'
p287
sS'Guarial,OverCurrTripCounter'
p288
S'158'
p289
sS'RIU,PhaseBRecloseCounter1'
p290
S'23'
p291
sS'CATSA,PhaseCRecloseCounter1'
p292
g184
sS'Sugar,OverCurrTripCounter'
p293
S'155'
p294
sS'Flamingo,PhaseARecloseCounter1'
p295
S'269'
p296
sS'27_de_Abril,PhaseCRecloseCounter1'
p297
S'33'
p298
sS'Huacas,PhaseARecloseCounter1'
p299
S'138'
p300
sS'Jicaral,AI06'
p301
S'2089'
p302
sS'Carmona,OverCurrTripCounter'
p303
S'269'
p304
sS'Higueron,PhaseCRecloseCounter1'
p305
S'97'
p306
sS'Azul_Paraiso,PhaseARecloseCounter1'
p307
S'28'
p308
sS'San_Martin,OverCurrTripCounter'
p309
S'28'
p310
sS'Palo_de_Arco,AI03'
p311
S'155'
p312
sS'Malinches,PhaseBRecloseCounter1'
p313
g52
sS'27_de_Abril,PhaseBRecloseCounter1'
p314
S'33'
p315
sS'Danta,PhaseARecloseCounter1'
p316
g96
sS'Junquillal,AI03'
p317
S'538'
p318
sS'Monteclaro,PhaseCRecloseCounter1'
p319
S'270'
p320
sS'Cartagena_Potrero,AI06'
p321
S'1423'
p322
sS'SodaSardinal,AI06'
p323
S'19'
p324
sS'Enlace_Santa_Cruz_Pinilla,PhaseBRecloseCounter1'
p325
g96
sS'Cementerio_Santa_Rosa,PhaseBRecloseCounter1'
p326
S'93'
p327
s.